target datalayout = "e-m:e-p270:32:32-p271:32:32-p272:64:64-i64:64-i128:128-f80:128-n8:16:32:64-S128"
target triple = "x86_64-pc-linux-gnu"

%struct.test_fixture = type { ptr, ptr }

@.str = private unnamed_addr constant [31 x i8] c"../openssl/test/cmp_ctx_test.c\00", align 1
@.str.22 = private unnamed_addr constant [24 x i8] c"test_CTX_set1_get0_cert\00", align 1
@.str.62 = private unnamed_addr constant [17 x i8] c"ERR_peek_error()\00", align 1
@.str.63 = private unnamed_addr constant [2 x i8] c"0\00", align 1
@.str.64 = private unnamed_addr constant [43 x i8] c"setter did not return error on ctx == NULL\00", align 1
@.str.65 = private unnamed_addr constant [43 x i8] c"getter did not return error on ctx == NULL\00", align 1
@.str.66 = private unnamed_addr constant [26 x i8] c"did not get default value\00", align 1
@.str.67 = private unnamed_addr constant [27 x i8] c"setting first value failed\00", align 1
@.str.69 = private unnamed_addr constant [28 x i8] c"setting second value failed\00", align 1
@.str.70 = private unnamed_addr constant [27 x i8] c"second set reset the value\00", align 1
@.str.72 = private unnamed_addr constant [26 x i8] c"third set reset the value\00", align 1
@.str.73 = private unnamed_addr constant [31 x i8] c"third get gave different value\00", align 1
@.str.74 = private unnamed_addr constant [4 x i8] c"res\00", align 1
@.str.123 = private unnamed_addr constant [24 x i8] c"first set had no effect\00", align 1
@.str.125 = private unnamed_addr constant [36 x i8] c"second value is same as first value\00", align 1

; Function Attrs: nounwind uwtable
define internal void @tear_down(ptr noundef %0) #0 {
  %2 = alloca ptr, align 8
  store ptr %0, ptr %2, align 8, !tbaa !15
  %3 = load ptr, ptr %2, align 8, !tbaa !15
  %4 = icmp ne ptr %3, null
  br i1 %4, label %5, label %9

5:                                                ; preds = %1
  %6 = load ptr, ptr %2, align 8, !tbaa !15
  %7 = getelementptr inbounds nuw %struct.test_fixture, ptr %6, i32 0, i32 1
  %8 = load ptr, ptr %7, align 8, !tbaa !17
  call void @OSSL_CMP_CTX_free(ptr noundef %8)
  br label %9

9:                                                ; preds = %5, %1
  %10 = load ptr, ptr %2, align 8, !tbaa !15
  call void @CRYPTO_free(ptr noundef %10, ptr noundef @.str, i32 noundef 25)
  ret void
}

; Function Attrs: nounwind uwtable
define internal i32 @execute_CTX_set1_get0_cert(ptr noundef %0) #0 {
  %2 = alloca ptr, align 8
  %3 = alloca ptr, align 8
  %4 = alloca ptr, align 8
  %5 = alloca ptr, align 8
  %6 = alloca ptr, align 8
  %7 = alloca ptr, align 8
  %8 = alloca ptr, align 8
  %9 = alloca ptr, align 8
  %10 = alloca ptr, align 8
  %11 = alloca ptr, align 8
  %12 = alloca ptr, align 8
  %13 = alloca i32, align 4
  store ptr %0, ptr %2, align 8, !tbaa !15
  call void @llvm.lifetime.start.p0(i64 8, ptr %3) #5
  %14 = load ptr, ptr %2, align 8, !tbaa !15
  %15 = getelementptr inbounds nuw %struct.test_fixture, ptr %14, i32 0, i32 1
  %16 = load ptr, ptr %15, align 8, !tbaa !17
  store ptr %16, ptr %3, align 8, !tbaa !11
  call void @llvm.lifetime.start.p0(i64 8, ptr %4) #5
  store ptr @OSSL_CMP_CTX_set1_cert, ptr %4, align 8, !tbaa !50
  call void @llvm.lifetime.start.p0(i64 8, ptr %5) #5
  store ptr @OSSL_CMP_CTX_get0_cert, ptr %5, align 8, !tbaa !50
  call void @llvm.lifetime.start.p0(i64 8, ptr %6) #5
  %17 = call ptr @X509_new()
  store ptr %17, ptr %6, align 8, !tbaa !24
  call void @llvm.lifetime.start.p0(i64 8, ptr %7) #5
  %18 = load ptr, ptr %6, align 8, !tbaa !24
  store ptr %18, ptr %7, align 8, !tbaa !24
  call void @llvm.lifetime.start.p0(i64 8, ptr %8) #5
  store ptr null, ptr %8, align 8, !tbaa !24
  call void @llvm.lifetime.start.p0(i64 8, ptr %9) #5
  %19 = call ptr @X509_new()
  store ptr %19, ptr %9, align 8, !tbaa !24
  call void @llvm.lifetime.start.p0(i64 8, ptr %10) #5
  %20 = load ptr, ptr %9, align 8, !tbaa !24
  store ptr %20, ptr %10, align 8, !tbaa !24
  call void @llvm.lifetime.start.p0(i64 8, ptr %11) #5
  store ptr null, ptr %11, align 8, !tbaa !24
  call void @llvm.lifetime.start.p0(i64 8, ptr %12) #5
  store ptr null, ptr %12, align 8, !tbaa !24
  call void @llvm.lifetime.start.p0(i64 4, ptr %13) #5
  store i32 1, ptr %13, align 4, !tbaa !13
  %21 = call i64 @ERR_peek_error()
  %22 = trunc i64 %21 to i32
  %23 = call i32 @test_int_eq(ptr noundef @.str, i32 noundef 771, ptr noundef @.str.62, ptr noundef @.str.63, i32 noundef %22, i32 noundef 0)
  %24 = icmp ne i32 %23, 0
  br i1 %24, label %26, label %25

25:                                               ; preds = %1
  store i32 0, ptr %13, align 4, !tbaa !13
  br label %26

26:                                               ; preds = %25, %1
  %27 = load ptr, ptr %4, align 8, !tbaa !50
  %28 = load ptr, ptr %7, align 8, !tbaa !24
  %29 = call i32 %27(ptr noundef null, ptr noundef %28)
  %30 = icmp ne i32 %29, 0
  br i1 %30, label %34, label %31

31:                                               ; preds = %26
  %32 = call i64 @ERR_peek_error()
  %33 = icmp eq i64 %32, 0
  br i1 %33, label %34, label %35

34:                                               ; preds = %31, %26
  call void (ptr, i32, ptr, ...) @test_error(ptr noundef @.str, i32 noundef 771, ptr noundef @.str.64)
  store i32 0, ptr %13, align 4, !tbaa !13
  br label %35

35:                                               ; preds = %34, %31
  call void @ERR_clear_error()
  %36 = load ptr, ptr %5, align 8, !tbaa !50
  %37 = call ptr %36(ptr noundef null)
  %38 = icmp ne ptr %37, null
  br i1 %38, label %42, label %39

39:                                               ; preds = %35
  %40 = call i64 @ERR_peek_error()
  %41 = icmp eq i64 %40, 0
  br i1 %41, label %42, label %43

42:                                               ; preds = %39, %35
  call void (ptr, i32, ptr, ...) @test_error(ptr noundef @.str, i32 noundef 771, ptr noundef @.str.65)
  store i32 0, ptr %13, align 4, !tbaa !13
  br label %43

43:                                               ; preds = %42, %39
  call void @ERR_clear_error()
  %44 = load ptr, ptr %5, align 8, !tbaa !50
  %45 = load ptr, ptr %3, align 8, !tbaa !11
  %46 = call ptr %44(ptr noundef %45)
  store ptr %46, ptr %8, align 8, !tbaa !24
  %47 = load ptr, ptr %8, align 8, !tbaa !24
  %48 = icmp eq ptr %47, null
  br i1 %48, label %50, label %49

49:                                               ; preds = %43
  call void (ptr, i32, ptr, ...) @test_error(ptr noundef @.str, i32 noundef 771, ptr noundef @.str.66)
  store i32 0, ptr %13, align 4, !tbaa !13
  br label %50

50:                                               ; preds = %49, %43
  %51 = load ptr, ptr %4, align 8, !tbaa !50
  %52 = load ptr, ptr %3, align 8, !tbaa !11
  %53 = load ptr, ptr %7, align 8, !tbaa !24
  %54 = call i32 %51(ptr noundef %52, ptr noundef %53)
  %55 = icmp ne i32 %54, 0
  br i1 %55, label %57, label %56

56:                                               ; preds = %50
  call void (ptr, i32, ptr, ...) @test_error(ptr noundef @.str, i32 noundef 771, ptr noundef @.str.67)
  store i32 0, ptr %13, align 4, !tbaa !13
  br label %57

57:                                               ; preds = %56, %50
  %58 = load ptr, ptr %5, align 8, !tbaa !50
  %59 = load ptr, ptr %3, align 8, !tbaa !11
  %60 = call ptr %58(ptr noundef %59)
  store ptr %60, ptr %8, align 8, !tbaa !24
  %61 = load ptr, ptr %8, align 8, !tbaa !24
  %62 = icmp eq ptr %61, null
  br i1 %62, label %63, label %64

63:                                               ; preds = %57
  call void (ptr, i32, ptr, ...) @test_error(ptr noundef @.str, i32 noundef 771, ptr noundef @.str.123)
  store i32 0, ptr %13, align 4, !tbaa !13
  br label %64

64:                                               ; preds = %63, %57
  %65 = load ptr, ptr %4, align 8, !tbaa !50
  %66 = load ptr, ptr %3, align 8, !tbaa !11
  %67 = load ptr, ptr %10, align 8, !tbaa !24
  %68 = call i32 %65(ptr noundef %66, ptr noundef %67)
  %69 = icmp ne i32 %68, 0
  br i1 %69, label %71, label %70

70:                                               ; preds = %64
  call void (ptr, i32, ptr, ...) @test_error(ptr noundef @.str, i32 noundef 771, ptr noundef @.str.69)
  store i32 0, ptr %13, align 4, !tbaa !13
  br label %71

71:                                               ; preds = %70, %64
  %72 = load ptr, ptr %5, align 8, !tbaa !50
  %73 = load ptr, ptr %3, align 8, !tbaa !11
  %74 = call ptr %72(ptr noundef %73)
  store ptr %74, ptr %11, align 8, !tbaa !24
  %75 = load ptr, ptr %11, align 8, !tbaa !24
  %76 = icmp eq ptr %75, null
  br i1 %76, label %77, label %78

77:                                               ; preds = %71
  call void (ptr, i32, ptr, ...) @test_error(ptr noundef @.str, i32 noundef 771, ptr noundef @.str.70)
  store i32 0, ptr %13, align 4, !tbaa !13
  br label %78

78:                                               ; preds = %77, %71
  %79 = load ptr, ptr %10, align 8, !tbaa !24
  %80 = load ptr, ptr %7, align 8, !tbaa !24
  %81 = icmp eq ptr %79, %80
  br i1 %81, label %82, label %83

82:                                               ; preds = %78
  call void (ptr, i32, ptr, ...) @test_error(ptr noundef @.str, i32 noundef 771, ptr noundef @.str.125)
  store i32 0, ptr %13, align 4, !tbaa !13
  br label %83

83:                                               ; preds = %82, %78
  %84 = load ptr, ptr %5, align 8, !tbaa !50
  %85 = load ptr, ptr %3, align 8, !tbaa !11
  %86 = call ptr %84(ptr noundef %85)
  store ptr %86, ptr %12, align 8, !tbaa !24
  %87 = load ptr, ptr %12, align 8, !tbaa !24
  %88 = icmp eq ptr %87, null
  br i1 %88, label %89, label %90

89:                                               ; preds = %83
  call void (ptr, i32, ptr, ...) @test_error(ptr noundef @.str, i32 noundef 771, ptr noundef @.str.72)
  store i32 0, ptr %13, align 4, !tbaa !13
  br label %90

90:                                               ; preds = %89, %83
  %91 = load ptr, ptr %12, align 8, !tbaa !24
  %92 = load ptr, ptr %11, align 8, !tbaa !24
  %93 = icmp ne ptr %91, %92
  br i1 %93, label %94, label %95

94:                                               ; preds = %90
  call void (ptr, i32, ptr, ...) @test_error(ptr noundef @.str, i32 noundef 771, ptr noundef @.str.73)
  store i32 0, ptr %13, align 4, !tbaa !13
  br label %95

95:                                               ; preds = %94, %90
  %96 = call i64 @ERR_peek_error()
  %97 = trunc i64 %96 to i32
  %98 = call i32 @test_int_eq(ptr noundef @.str, i32 noundef 771, ptr noundef @.str.62, ptr noundef @.str.63, i32 noundef %97, i32 noundef 0)
  %99 = icmp ne i32 %98, 0
  br i1 %99, label %101, label %100

100:                                              ; preds = %95
  store i32 0, ptr %13, align 4, !tbaa !13
  br label %101

101:                                              ; preds = %100, %95
  %102 = load ptr, ptr %6, align 8, !tbaa !24
  call void @X509_free(ptr noundef %102)
  %103 = load ptr, ptr %9, align 8, !tbaa !24
  call void @X509_free(ptr noundef %103)
  %104 = load i32, ptr %13, align 4, !tbaa !13
  %105 = icmp ne i32 %104, 0
  %106 = zext i1 %105 to i32
  %107 = call i32 @test_true(ptr noundef @.str, i32 noundef 771, ptr noundef @.str.74, i32 noundef %106)
  call void @llvm.lifetime.end.p0(i64 4, ptr %13) #5
  call void @llvm.lifetime.end.p0(i64 8, ptr %12) #5
  call void @llvm.lifetime.end.p0(i64 8, ptr %11) #5
  call void @llvm.lifetime.end.p0(i64 8, ptr %10) #5
  call void @llvm.lifetime.end.p0(i64 8, ptr %9) #5
  call void @llvm.lifetime.end.p0(i64 8, ptr %8) #5
  call void @llvm.lifetime.end.p0(i64 8, ptr %7) #5
  call void @llvm.lifetime.end.p0(i64 8, ptr %6) #5
  call void @llvm.lifetime.end.p0(i64 8, ptr %5) #5
  call void @llvm.lifetime.end.p0(i64 8, ptr %4) #5
  call void @llvm.lifetime.end.p0(i64 8, ptr %3) #5
  ret i32 %107
}

; Function Attrs: nounwind uwtable
define internal i32 @test_CTX_set1_get0_cert() #0 {
  %1 = alloca i32, align 4
  %2 = alloca ptr, align 8
  %3 = alloca i32, align 4
  %4 = alloca i32, align 4
  call void @llvm.lifetime.start.p0(i64 8, ptr %2) #5
  %5 = call ptr @set_up(ptr noundef @.str.22)
  store ptr %5, ptr %2, align 8, !tbaa !15
  call void @llvm.lifetime.start.p0(i64 4, ptr %3) #5
  store i32 0, ptr %3, align 4, !tbaa !13
  %6 = load ptr, ptr %2, align 8, !tbaa !15
  %7 = icmp eq ptr %6, null
  br i1 %7, label %8, label %9

8:                                                ; preds = %0
  store i32 0, ptr %1, align 4
  store i32 1, ptr %4, align 4
  br label %18

9:                                                ; preds = %0
  %10 = load ptr, ptr %2, align 8, !tbaa !15
  %11 = icmp ne ptr %10, null
  br i1 %11, label %12, label %16

12:                                               ; preds = %9
  %13 = load ptr, ptr %2, align 8, !tbaa !15
  %14 = call i32 @execute_CTX_set1_get0_cert(ptr noundef %13)
  store i32 %14, ptr %3, align 4, !tbaa !13
  %15 = load ptr, ptr %2, align 8, !tbaa !15
  call void @tear_down(ptr noundef %15)
  br label %16

16:                                               ; preds = %12, %9
  %17 = load i32, ptr %3, align 4, !tbaa !13
  store i32 %17, ptr %1, align 4
  store i32 1, ptr %4, align 4
  br label %18

18:                                               ; preds = %16, %8
  call void @llvm.lifetime.end.p0(i64 4, ptr %3) #5
  call void @llvm.lifetime.end.p0(i64 8, ptr %2) #5
  %19 = load i32, ptr %1, align 4
  ret i32 %19
}